target datalayout = "e-m:e-p270:32:32-p271:32:32-p272:64:64-i64:64-i128:128-f80:128-n8:16:32:64-S128"
target triple = "x86_64-pc-linux-gnu"

%struct.WebPPicture = type { i32, i32, i32, i32, ptr, ptr, ptr, i32, i32, ptr, i32, [2 x i32], ptr, i32, [3 x i32], ptr, ptr, i32, ptr, ptr, i32, ptr, ptr, [3 x i32], ptr, ptr, [8 x i32], ptr, ptr, [2 x ptr] }

; Function Attrs: nounwind uwtable
define internal void @SnapTopLeftPosition(ptr noundef %0, ptr noundef %1, ptr noundef %2) #0 {
  %4 = alloca ptr, align 8
  %5 = alloca ptr, align 8
  %6 = alloca ptr, align 8
  store ptr %0, ptr %4, align 8, !tbaa !3
  store ptr %1, ptr %5, align 8, !tbaa !29
  store ptr %2, ptr %6, align 8, !tbaa !29
  %7 = load ptr, ptr %4, align 8, !tbaa !3
  %8 = getelementptr inbounds nuw %struct.WebPPicture, ptr %7, i32 0, i32 0
  %9 = load i32, ptr %8, align 8, !tbaa !8
  %10 = icmp ne i32 %9, 0
  br i1 %10, label %18, label %11

11:                                               ; preds = %3
  %12 = load ptr, ptr %5, align 8, !tbaa !29
  %13 = load i32, ptr %12, align 4, !tbaa !26
  %14 = and i32 %13, -2
  store i32 %14, ptr %12, align 4, !tbaa !26
  %15 = load ptr, ptr %6, align 8, !tbaa !29
  %16 = load i32, ptr %15, align 4, !tbaa !26
  %17 = and i32 %16, -2
  store i32 %17, ptr %15, align 4, !tbaa !26
  br label %18

18:                                               ; preds = %11, %3
  ret void
}

; Function Attrs: nounwind uwtable
define internal void @PictureGrabSpecs(ptr noundef %0, ptr noundef %1) #0 {
  %3 = alloca ptr, align 8
  %4 = alloca ptr, align 8
  store ptr %0, ptr %3, align 8, !tbaa !3
  store ptr %1, ptr %4, align 8, !tbaa !3
  %5 = load ptr, ptr %4, align 8, !tbaa !3
  %6 = load ptr, ptr %3, align 8, !tbaa !3
  call void @llvm.memcpy.p0.p0.i64(ptr align 8 %5, ptr align 8 %6, i64 256, i1 false), !tbaa.struct !25
  %7 = load ptr, ptr %4, align 8, !tbaa !3
  call void @WebPPictureResetBuffers(ptr noundef %7)
  ret void
}

; Function Attrs: nounwind uwtable
define internal i32 @AdjustAndCheckRectangle(ptr noundef %0, ptr noundef %1, ptr noundef %2, i32 noundef %3, i32 noundef %4) #0 {
  %6 = alloca i32, align 4
  %7 = alloca ptr, align 8
  %8 = alloca ptr, align 8
  %9 = alloca ptr, align 8
  %10 = alloca i32, align 4
  %11 = alloca i32, align 4
  store ptr %0, ptr %7, align 8, !tbaa !3
  store ptr %1, ptr %8, align 8, !tbaa !29
  store ptr %2, ptr %9, align 8, !tbaa !29
  store i32 %3, ptr %10, align 4, !tbaa !26
  store i32 %4, ptr %11, align 4, !tbaa !26
  %12 = load ptr, ptr %7, align 8, !tbaa !3
  %13 = load ptr, ptr %8, align 8, !tbaa !29
  %14 = load ptr, ptr %9, align 8, !tbaa !29
  call void @SnapTopLeftPosition(ptr noundef %12, ptr noundef %13, ptr noundef %14)
  %15 = load ptr, ptr %8, align 8, !tbaa !29
  %16 = load i32, ptr %15, align 4, !tbaa !26
  %17 = icmp slt i32 %16, 0
  br i1 %17, label %22, label %18

18:                                               ; preds = %5
  %19 = load ptr, ptr %9, align 8, !tbaa !29
  %20 = load i32, ptr %19, align 4, !tbaa !26
  %21 = icmp slt i32 %20, 0
  br i1 %21, label %22, label %23

22:                                               ; preds = %18, %5
  store i32 0, ptr %6, align 4
  br label %51

23:                                               ; preds = %18
  %24 = load i32, ptr %10, align 4, !tbaa !26
  %25 = icmp sle i32 %24, 0
  br i1 %25, label %29, label %26

26:                                               ; preds = %23
  %27 = load i32, ptr %11, align 4, !tbaa !26
  %28 = icmp sle i32 %27, 0
  br i1 %28, label %29, label %30

29:                                               ; preds = %26, %23
  store i32 0, ptr %6, align 4
  br label %51

30:                                               ; preds = %26
  %31 = load ptr, ptr %8, align 8, !tbaa !29
  %32 = load i32, ptr %31, align 4, !tbaa !26
  %33 = load i32, ptr %10, align 4, !tbaa !26
  %34 = add nsw i32 %32, %33
  %35 = load ptr, ptr %7, align 8, !tbaa !3
  %36 = getelementptr inbounds nuw %struct.WebPPicture, ptr %35, i32 0, i32 2
  %37 = load i32, ptr %36, align 8, !tbaa !16
  %38 = icmp sgt i32 %34, %37
  br i1 %38, label %39, label %40

39:                                               ; preds = %30
  store i32 0, ptr %6, align 4
  br label %51

40:                                               ; preds = %30
  %41 = load ptr, ptr %9, align 8, !tbaa !29
  %42 = load i32, ptr %41, align 4, !tbaa !26
  %43 = load i32, ptr %11, align 4, !tbaa !26
  %44 = add nsw i32 %42, %43
  %45 = load ptr, ptr %7, align 8, !tbaa !3
  %46 = getelementptr inbounds nuw %struct.WebPPicture, ptr %45, i32 0, i32 3
  %47 = load i32, ptr %46, align 4, !tbaa !17
  %48 = icmp sgt i32 %44, %47
  br i1 %48, label %49, label %50

49:                                               ; preds = %40
  store i32 0, ptr %6, align 4
  br label %51

50:                                               ; preds = %40
  store i32 1, ptr %6, align 4
  br label %51

51:                                               ; preds = %50, %49, %39, %29, %22
  %52 = load i32, ptr %6, align 4
  ret i32 %52
}

; Function Attrs: nounwind uwtable
define i32 @WebPPictureCrop(ptr noundef %0, i32 noundef %1, i32 noundef %2, i32 noundef %3, i32 noundef %4) #0 {
  %6 = alloca i32, align 4
  %7 = alloca ptr, align 8
  %8 = alloca i32, align 4
  %9 = alloca i32, align 4
  %10 = alloca i32, align 4
  %11 = alloca i32, align 4
  %12 = alloca %struct.WebPPicture, align 8
  %13 = alloca i32, align 4
  %14 = alloca i32, align 4
  %15 = alloca i32, align 4
  %16 = alloca i32, align 4
  %17 = alloca ptr, align 8
  store ptr %0, ptr %7, align 8, !tbaa !3
  store i32 %1, ptr %8, align 4, !tbaa !26
  store i32 %2, ptr %9, align 4, !tbaa !26
  store i32 %3, ptr %10, align 4, !tbaa !26
  store i32 %4, ptr %11, align 4, !tbaa !26
  call void @llvm.lifetime.start.p0(i64 256, ptr %12) #4
  %18 = load ptr, ptr %7, align 8, !tbaa !3
  %19 = icmp eq ptr %18, null
  br i1 %19, label %20, label %21

20:                                               ; preds = %5
  store i32 0, ptr %6, align 4
  store i32 1, ptr %13, align 4
  br label %173

21:                                               ; preds = %5
  %22 = load ptr, ptr %7, align 8, !tbaa !3
  %23 = load i32, ptr %10, align 4, !tbaa !26
  %24 = load i32, ptr %11, align 4, !tbaa !26
  %25 = call i32 @AdjustAndCheckRectangle(ptr noundef %22, ptr noundef %8, ptr noundef %9, i32 noundef %23, i32 noundef %24)
  %26 = icmp ne i32 %25, 0
  br i1 %26, label %28, label %27

27:                                               ; preds = %21
  store i32 0, ptr %6, align 4
  store i32 1, ptr %13, align 4
  br label %173

28:                                               ; preds = %21
  %29 = load ptr, ptr %7, align 8, !tbaa !3
  call void @PictureGrabSpecs(ptr noundef %29, ptr noundef %12)
  %30 = load i32, ptr %10, align 4, !tbaa !26
  %31 = getelementptr inbounds nuw %struct.WebPPicture, ptr %12, i32 0, i32 2
  store i32 %30, ptr %31, align 8, !tbaa !16
  %32 = load i32, ptr %11, align 4, !tbaa !26
  %33 = getelementptr inbounds nuw %struct.WebPPicture, ptr %12, i32 0, i32 3
  store i32 %32, ptr %33, align 4, !tbaa !17
  %34 = call i32 @WebPPictureAlloc(ptr noundef %12)
  %35 = icmp ne i32 %34, 0
  br i1 %35, label %41, label %36

36:                                               ; preds = %28
  %37 = load ptr, ptr %7, align 8, !tbaa !3
  %38 = getelementptr inbounds nuw %struct.WebPPicture, ptr %12, i32 0, i32 20
  %39 = load i32, ptr %38, align 8, !tbaa !34
  %40 = call i32 @WebPEncodingSetError(ptr noundef %37, i32 noundef %39)
  store i32 %40, ptr %6, align 4
  store i32 1, ptr %13, align 4
  br label %173

41:                                               ; preds = %28
  %42 = load ptr, ptr %7, align 8, !tbaa !3
  %43 = getelementptr inbounds nuw %struct.WebPPicture, ptr %42, i32 0, i32 0
  %44 = load i32, ptr %43, align 8, !tbaa !8
  %45 = icmp ne i32 %44, 0
  br i1 %45, label %143, label %46

46:                                               ; preds = %41
  call void @llvm.lifetime.start.p0(i64 4, ptr %14) #4
  %47 = load i32, ptr %9, align 4, !tbaa !26
  %48 = load ptr, ptr %7, align 8, !tbaa !3
  %49 = getelementptr inbounds nuw %struct.WebPPicture, ptr %48, i32 0, i32 7
  %50 = load i32, ptr %49, align 8, !tbaa !15
  %51 = mul nsw i32 %47, %50
  %52 = load i32, ptr %8, align 4, !tbaa !26
  %53 = add nsw i32 %51, %52
  store i32 %53, ptr %14, align 4, !tbaa !26
  call void @llvm.lifetime.start.p0(i64 4, ptr %15) #4
  %54 = load i32, ptr %9, align 4, !tbaa !26
  %55 = sdiv i32 %54, 2
  %56 = load ptr, ptr %7, align 8, !tbaa !3
  %57 = getelementptr inbounds nuw %struct.WebPPicture, ptr %56, i32 0, i32 8
  %58 = load i32, ptr %57, align 4, !tbaa !19
  %59 = mul nsw i32 %55, %58
  %60 = load i32, ptr %8, align 4, !tbaa !26
  %61 = sdiv i32 %60, 2
  %62 = add nsw i32 %59, %61
  store i32 %62, ptr %15, align 4, !tbaa !26
  %63 = load ptr, ptr %7, align 8, !tbaa !3
  %64 = getelementptr inbounds nuw %struct.WebPPicture, ptr %63, i32 0, i32 4
  %65 = load ptr, ptr %64, align 8, !tbaa !14
  %66 = load i32, ptr %14, align 4, !tbaa !26
  %67 = sext i32 %66 to i64
  %68 = getelementptr inbounds i8, ptr %65, i64 %67
  %69 = load ptr, ptr %7, align 8, !tbaa !3
  %70 = getelementptr inbounds nuw %struct.WebPPicture, ptr %69, i32 0, i32 7
  %71 = load i32, ptr %70, align 8, !tbaa !15
  %72 = getelementptr inbounds nuw %struct.WebPPicture, ptr %12, i32 0, i32 4
  %73 = load ptr, ptr %72, align 8, !tbaa !14
  %74 = getelementptr inbounds nuw %struct.WebPPicture, ptr %12, i32 0, i32 7
  %75 = load i32, ptr %74, align 8, !tbaa !15
  %76 = load i32, ptr %10, align 4, !tbaa !26
  %77 = load i32, ptr %11, align 4, !tbaa !26
  call void @WebPCopyPlane(ptr noundef %68, i32 noundef %71, ptr noundef %73, i32 noundef %75, i32 noundef %76, i32 noundef %77)
  %78 = load ptr, ptr %7, align 8, !tbaa !3
  %79 = getelementptr inbounds nuw %struct.WebPPicture, ptr %78, i32 0, i32 5
  %80 = load ptr, ptr %79, align 8, !tbaa !18
  %81 = load i32, ptr %15, align 4, !tbaa !26
  %82 = sext i32 %81 to i64
  %83 = getelementptr inbounds i8, ptr %80, i64 %82
  %84 = load ptr, ptr %7, align 8, !tbaa !3
  %85 = getelementptr inbounds nuw %struct.WebPPicture, ptr %84, i32 0, i32 8
  %86 = load i32, ptr %85, align 4, !tbaa !19
  %87 = getelementptr inbounds nuw %struct.WebPPicture, ptr %12, i32 0, i32 5
  %88 = load ptr, ptr %87, align 8, !tbaa !18
  %89 = getelementptr inbounds nuw %struct.WebPPicture, ptr %12, i32 0, i32 8
  %90 = load i32, ptr %89, align 4, !tbaa !19
  %91 = load i32, ptr %10, align 4, !tbaa !26
  %92 = add nsw i32 %91, 1
  %93 = ashr i32 %92, 1
  %94 = load i32, ptr %11, align 4, !tbaa !26
  %95 = add nsw i32 %94, 1
  %96 = ashr i32 %95, 1
  call void @WebPCopyPlane(ptr noundef %83, i32 noundef %86, ptr noundef %88, i32 noundef %90, i32 noundef %93, i32 noundef %96)
  %97 = load ptr, ptr %7, align 8, !tbaa !3
  %98 = getelementptr inbounds nuw %struct.WebPPicture, ptr %97, i32 0, i32 6
  %99 = load ptr, ptr %98, align 8, !tbaa !20
  %100 = load i32, ptr %15, align 4, !tbaa !26
  %101 = sext i32 %100 to i64
  %102 = getelementptr inbounds i8, ptr %99, i64 %101
  %103 = load ptr, ptr %7, align 8, !tbaa !3
  %104 = getelementptr inbounds nuw %struct.WebPPicture, ptr %103, i32 0, i32 8
  %105 = load i32, ptr %104, align 4, !tbaa !19
  %106 = getelementptr inbounds nuw %struct.WebPPicture, ptr %12, i32 0, i32 6
  %107 = load ptr, ptr %106, align 8, !tbaa !20
  %108 = getelementptr inbounds nuw %struct.WebPPicture, ptr %12, i32 0, i32 8
  %109 = load i32, ptr %108, align 4, !tbaa !19
  %110 = load i32, ptr %10, align 4, !tbaa !26
  %111 = add nsw i32 %110, 1
  %112 = ashr i32 %111, 1
  %113 = load i32, ptr %11, align 4, !tbaa !26
  %114 = add nsw i32 %113, 1
  %115 = ashr i32 %114, 1
  call void @WebPCopyPlane(ptr noundef %102, i32 noundef %105, ptr noundef %107, i32 noundef %109, i32 noundef %112, i32 noundef %115)
  %116 = getelementptr inbounds nuw %struct.WebPPicture, ptr %12, i32 0, i32 9
  %117 = load ptr, ptr %116, align 8, !tbaa !21
  %118 = icmp ne ptr %117, null
  br i1 %118, label %119, label %142

119:                                              ; preds = %46
  call void @llvm.lifetime.start.p0(i64 4, ptr %16) #4
  %120 = load i32, ptr %9, align 4, !tbaa !26
  %121 = load ptr, ptr %7, align 8, !tbaa !3
  %122 = getelementptr inbounds nuw %struct.WebPPicture, ptr %121, i32 0, i32 10
  %123 = load i32, ptr %122, align 8, !tbaa !22
  %124 = mul nsw i32 %120, %123
  %125 = load i32, ptr %8, align 4, !tbaa !26
  %126 = add nsw i32 %124, %125
  store i32 %126, ptr %16, align 4, !tbaa !26
  %127 = load ptr, ptr %7, align 8, !tbaa !3
  %128 = getelementptr inbounds nuw %struct.WebPPicture, ptr %127, i32 0, i32 9
  %129 = load ptr, ptr %128, align 8, !tbaa !21
  %130 = load i32, ptr %16, align 4, !tbaa !26
  %131 = sext i32 %130 to i64
  %132 = getelementptr inbounds i8, ptr %129, i64 %131
  %133 = load ptr, ptr %7, align 8, !tbaa !3
  %134 = getelementptr inbounds nuw %struct.WebPPicture, ptr %133, i32 0, i32 10
  %135 = load i32, ptr %134, align 8, !tbaa !22
  %136 = getelementptr inbounds nuw %struct.WebPPicture, ptr %12, i32 0, i32 9
  %137 = load ptr, ptr %136, align 8, !tbaa !21
  %138 = getelementptr inbounds nuw %struct.WebPPicture, ptr %12, i32 0, i32 10
  %139 = load i32, ptr %138, align 8, !tbaa !22
  %140 = load i32, ptr %10, align 4, !tbaa !26
  %141 = load i32, ptr %11, align 4, !tbaa !26
  call void @WebPCopyPlane(ptr noundef %132, i32 noundef %135, ptr noundef %137, i32 noundef %139, i32 noundef %140, i32 noundef %141)
  call void @llvm.lifetime.end.p0(i64 4, ptr %16) #4
  br label %142

142:                                              ; preds = %119, %46
  call void @llvm.lifetime.end.p0(i64 4, ptr %15) #4
  call void @llvm.lifetime.end.p0(i64 4, ptr %14) #4
  br label %170

143:                                              ; preds = %41
  call void @llvm.lifetime.start.p0(i64 8, ptr %17) #4
  %144 = load ptr, ptr %7, align 8, !tbaa !3
  %145 = getelementptr inbounds nuw %struct.WebPPicture, ptr %144, i32 0, i32 12
  %146 = load ptr, ptr %145, align 8, !tbaa !23
  %147 = load i32, ptr %9, align 4, !tbaa !26
  %148 = load ptr, ptr %7, align 8, !tbaa !3
  %149 = getelementptr inbounds nuw %struct.WebPPicture, ptr %148, i32 0, i32 13
  %150 = load i32, ptr %149, align 8, !tbaa !24
  %151 = mul nsw i32 %147, %150
  %152 = sext i32 %151 to i64
  %153 = getelementptr inbounds i32, ptr %146, i64 %152
  %154 = load i32, ptr %8, align 4, !tbaa !26
  %155 = sext i32 %154 to i64
  %156 = getelementptr inbounds i32, ptr %153, i64 %155
  store ptr %156, ptr %17, align 8, !tbaa !27
  %157 = load ptr, ptr %17, align 8, !tbaa !27
  %158 = load ptr, ptr %7, align 8, !tbaa !3
  %159 = getelementptr inbounds nuw %struct.WebPPicture, ptr %158, i32 0, i32 13
  %160 = load i32, ptr %159, align 8, !tbaa !24
  %161 = mul nsw i32 %160, 4
  %162 = getelementptr inbounds nuw %struct.WebPPicture, ptr %12, i32 0, i32 12
  %163 = load ptr, ptr %162, align 8, !tbaa !23
  %164 = getelementptr inbounds nuw %struct.WebPPicture, ptr %12, i32 0, i32 13
  %165 = load i32, ptr %164, align 8, !tbaa !24
  %166 = mul nsw i32 %165, 4
  %167 = load i32, ptr %10, align 4, !tbaa !26
  %168 = mul nsw i32 %167, 4
  %169 = load i32, ptr %11, align 4, !tbaa !26
  call void @WebPCopyPlane(ptr noundef %157, i32 noundef %161, ptr noundef %163, i32 noundef %166, i32 noundef %168, i32 noundef %169)
  call void @llvm.lifetime.end.p0(i64 8, ptr %17) #4
  br label %170

170:                                              ; preds = %143, %142
  %171 = load ptr, ptr %7, align 8, !tbaa !3
  call void @WebPPictureFree(ptr noundef %171)
  %172 = load ptr, ptr %7, align 8, !tbaa !3
  call void @llvm.memcpy.p0.p0.i64(ptr align 8 %172, ptr align 8 %12, i64 256, i1 false), !tbaa.struct !25
  store i32 1, ptr %6, align 4
  store i32 1, ptr %13, align 4
  br label %173

173:                                              ; preds = %170, %36, %27, %20
  call void @llvm.lifetime.end.p0(i64 256, ptr %12) #4
  %174 = load i32, ptr %6, align 4
  ret i32 %174
}