; Function Attrs: nounwind uwtable
define i32 @WebPPictureCrop(ptr noundef %0, i32 noundef %1, i32 noundef %2, i32 noundef %3, i32 noundef %4) local_unnamed_addr #0 {
  %6 = alloca %struct.WebPPicture, align 8
  call void @llvm.lifetime.start.p0(i64 256, ptr nonnull %6) #5
  %7 = icmp eq ptr %0, null
  br i1 %7, label %AdjustAndCheckRectangle.exit.thread, label %SnapTopLeftPosition.exit.i

SnapTopLeftPosition.exit.i:                       ; preds = %5
  %.val.i = load i32, ptr %0, align 8, !tbaa !17
  %.not.i.i = icmp eq i32 %.val.i, 0
  %8 = and i32 %1, -2
  %9 = and i32 %2, -2
  %.055 = select i1 %.not.i.i, i32 %8, i32 %1
  %.054 = select i1 %.not.i.i, i32 %9, i32 %2
  %10 = or i32 %.055, %.054
  %or.cond.not = icmp sgt i32 %10, -1
  br i1 %or.cond.not, label %11, label %AdjustAndCheckRectangle.exit.thread

11:                                               ; preds = %SnapTopLeftPosition.exit.i
  %12 = icmp slt i32 %3, 1
  %13 = icmp slt i32 %4, 1
  %or.cond.i = or i1 %12, %13
  br i1 %or.cond.i, label %AdjustAndCheckRectangle.exit.thread, label %14

14:                                               ; preds = %11
  %15 = add nuw nsw i32 %.055, %3
  %16 = getelementptr inbounds nuw i8, ptr %0, i64 8
  %17 = load i32, ptr %16, align 8, !tbaa !21
  %18 = icmp sgt i32 %15, %17
  br i1 %18, label %AdjustAndCheckRectangle.exit.thread, label %AdjustAndCheckRectangle.exit

AdjustAndCheckRectangle.exit:                     ; preds = %14
  %19 = add nuw nsw i32 %.054, %4
  %20 = getelementptr inbounds nuw i8, ptr %0, i64 12
  %21 = load i32, ptr %20, align 4, !tbaa !22
  %.not58 = icmp sgt i32 %19, %21
  br i1 %.not58, label %AdjustAndCheckRectangle.exit.thread, label %22

22:                                               ; preds = %AdjustAndCheckRectangle.exit
  call void @llvm.memcpy.p0.p0.i64(ptr noundef nonnull align 8 dereferenceable(256) %6, ptr noundef nonnull readonly align 8 dereferenceable(256) %0, i64 256, i1 false), !tbaa.struct !3
  call void @WebPPictureResetBuffers(ptr noundef nonnull %6) #5
  %23 = getelementptr inbounds nuw i8, ptr %6, i64 8
  store i32 %3, ptr %23, align 8, !tbaa !21
  %24 = getelementptr inbounds nuw i8, ptr %6, i64 12
  store i32 %4, ptr %24, align 4, !tbaa !22
  %25 = call i32 @WebPPictureAlloc(ptr noundef nonnull %6) #5
  %.not42 = icmp eq i32 %25, 0
  br i1 %.not42, label %26, label %30

26:                                               ; preds = %22
  %27 = getelementptr inbounds nuw i8, ptr %6, i64 136
  %28 = load i32, ptr %27, align 8, !tbaa !30
  %29 = call i32 @WebPEncodingSetError(ptr noundef nonnull %0, i32 noundef %28) #5
  br label %AdjustAndCheckRectangle.exit.thread

30:                                               ; preds = %22
  %31 = load i32, ptr %0, align 8, !tbaa !17
  %.not43 = icmp eq i32 %31, 0
  br i1 %.not43, label %32, label %84

32:                                               ; preds = %30
  %33 = getelementptr inbounds nuw i8, ptr %0, i64 40
  %34 = load i32, ptr %33, align 8, !tbaa !20
  %35 = mul nsw i32 %34, %.054
  %36 = add nsw i32 %35, %.055
  %37 = lshr i32 %.054, 1
  %38 = getelementptr inbounds nuw i8, ptr %0, i64 44
  %39 = load i32, ptr %38, align 4, !tbaa !24
  %40 = mul nsw i32 %39, %37
  %41 = lshr i32 %.055, 1
  %42 = add nsw i32 %40, %41
  %43 = getelementptr inbounds nuw i8, ptr %0, i64 16
  %44 = load ptr, ptr %43, align 8, !tbaa !19
  %45 = sext i32 %36 to i64
  %46 = getelementptr inbounds i8, ptr %44, i64 %45
  %47 = getelementptr inbounds nuw i8, ptr %6, i64 16
  %48 = load ptr, ptr %47, align 8, !tbaa !19
  %49 = getelementptr inbounds nuw i8, ptr %6, i64 40
  %50 = load i32, ptr %49, align 8, !tbaa !20
  call void @WebPCopyPlane(ptr noundef %46, i32 noundef %34, ptr noundef %48, i32 noundef %50, i32 noundef %3, i32 noundef %4) #5
  %51 = getelementptr inbounds nuw i8, ptr %0, i64 24
  %52 = load ptr, ptr %51, align 8, !tbaa !23
  %53 = sext i32 %42 to i64
  %54 = getelementptr inbounds i8, ptr %52, i64 %53
  %55 = load i32, ptr %38, align 4, !tbaa !24
  %56 = getelementptr inbounds nuw i8, ptr %6, i64 24
  %57 = load ptr, ptr %56, align 8, !tbaa !23
  %58 = getelementptr inbounds nuw i8, ptr %6, i64 44
  %59 = load i32, ptr %58, align 4, !tbaa !24
  %60 = add nuw nsw i32 %3, 1
  %61 = lshr i32 %60, 1
  %62 = add nuw nsw i32 %4, 1
  %63 = lshr i32 %62, 1
  call void @WebPCopyPlane(ptr noundef %54, i32 noundef %55, ptr noundef %57, i32 noundef %59, i32 noundef %61, i32 noundef %63) #5
  %64 = getelementptr inbounds nuw i8, ptr %0, i64 32
  %65 = load ptr, ptr %64, align 8, !tbaa !25
  %66 = getelementptr inbounds i8, ptr %65, i64 %53
  %67 = load i32, ptr %38, align 4, !tbaa !24
  %68 = getelementptr inbounds nuw i8, ptr %6, i64 32
  %69 = load ptr, ptr %68, align 8, !tbaa !25
  %70 = load i32, ptr %58, align 4, !tbaa !24
  call void @WebPCopyPlane(ptr noundef %66, i32 noundef %67, ptr noundef %69, i32 noundef %70, i32 noundef %61, i32 noundef %63) #5
  %71 = getelementptr inbounds nuw i8, ptr %6, i64 48
  %72 = load ptr, ptr %71, align 8, !tbaa !26
  %.not44 = icmp eq ptr %72, null
  br i1 %.not44, label %101, label %73

73:                                               ; preds = %32
  %74 = getelementptr inbounds nuw i8, ptr %0, i64 56
  %75 = load i32, ptr %74, align 8, !tbaa !27
  %76 = mul nsw i32 %75, %.054
  %77 = add nsw i32 %76, %.055
  %78 = getelementptr inbounds nuw i8, ptr %0, i64 48
  %79 = load ptr, ptr %78, align 8, !tbaa !26
  %80 = sext i32 %77 to i64
  %81 = getelementptr inbounds i8, ptr %79, i64 %80
  %82 = getelementptr inbounds nuw i8, ptr %6, i64 56
  %83 = load i32, ptr %82, align 8, !tbaa !27
  call void @WebPCopyPlane(ptr noundef %81, i32 noundef %75, ptr noundef nonnull %72, i32 noundef %83, i32 noundef %3, i32 noundef %4) #5
  br label %101

84:                                               ; preds = %30
  %85 = getelementptr inbounds nuw i8, ptr %0, i64 72
  %86 = load ptr, ptr %85, align 8, !tbaa !28
  %87 = getelementptr inbounds nuw i8, ptr %0, i64 80
  %88 = load i32, ptr %87, align 8, !tbaa !29
  %89 = mul nsw i32 %88, %.054
  %90 = sext i32 %89 to i64
  %91 = getelementptr inbounds i32, ptr %86, i64 %90
  %92 = zext nneg i32 %.055 to i64
  %93 = getelementptr inbounds nuw i32, ptr %91, i64 %92
  %94 = shl nsw i32 %88, 2
  %95 = getelementptr inbounds nuw i8, ptr %6, i64 72
  %96 = load ptr, ptr %95, align 8, !tbaa !28
  %97 = getelementptr inbounds nuw i8, ptr %6, i64 80
  %98 = load i32, ptr %97, align 8, !tbaa !29
  %99 = shl nsw i32 %98, 2
  %100 = shl nsw i32 %3, 2
  call void @WebPCopyPlane(ptr noundef %93, i32 noundef %94, ptr noundef %96, i32 noundef %99, i32 noundef %100, i32 noundef %4) #5
  br label %101

101:                                              ; preds = %32, %73, %84
  call void @WebPPictureFree(ptr noundef nonnull %0) #5
  call void @llvm.memcpy.p0.p0.i64(ptr noundef nonnull align 8 dereferenceable(256) %0, ptr noundef nonnull align 8 dereferenceable(256) %6, i64 256, i1 false), !tbaa.struct !3
  br label %AdjustAndCheckRectangle.exit.thread

AdjustAndCheckRectangle.exit.thread:              ; preds = %14, %11, %SnapTopLeftPosition.exit.i, %AdjustAndCheckRectangle.exit, %5, %101, %26
  %.0 = phi i32 [ 1, %101 ], [ %29, %26 ], [ 0, %5 ], [ 0, %AdjustAndCheckRectangle.exit ], [ 0, %SnapTopLeftPosition.exit.i ], [ 0, %11 ], [ 0, %14 ]
  call void @llvm.lifetime.end.p0(i64 256, ptr nonnull %6) #5
  ret i32 %.0
}